target datalayout = "e-m:e-p270:32:32-p271:32:32-p272:64:64-i64:64-i128:128-f80:128-n8:16:32:64-S128"
target triple = "x86_64-pc-linux-gnu"

%struct.ForEachState = type { ptr, i32 }
%struct.List = type { i32, i32, i32, ptr, [0 x %union.ListCell] }
%union.ListCell = type { ptr }
%struct.OpFamilyMember = type { i8, i32, i32, i32, i32, i32, i8, i8, i32 }

@.str.1 = private unnamed_addr constant [14 x i8] c"opclasscmds.c\00", align 1
@.str.48 = private unnamed_addr constant [54 x i8] c"function number %d for (%s,%s) appears more than once\00", align 1
@__func__.addFamilyMember = private unnamed_addr constant [16 x i8] c"addFamilyMember\00", align 1
@.str.49 = private unnamed_addr constant [54 x i8] c"operator number %d for (%s,%s) appears more than once\00", align 1

; Function Attrs: nounwind uwtable
define internal void @addFamilyMember(ptr noundef %0, ptr noundef %1) #0 {
  %3 = alloca ptr, align 8
  %4 = alloca ptr, align 8
  %5 = alloca ptr, align 8
  %6 = alloca %struct.ForEachState, align 8
  %7 = alloca ptr, align 8
  store ptr %0, ptr %3, align 8
  store ptr %1, ptr %4, align 8
  call void @llvm.lifetime.start.p0(i64 8, ptr %5) #7
  call void @llvm.lifetime.start.p0(i64 16, ptr %6) #7
  %8 = getelementptr inbounds nuw %struct.ForEachState, ptr %6, i32 0, i32 0
  %9 = load ptr, ptr %3, align 8
  %10 = load ptr, ptr %9, align 8
  store ptr %10, ptr %8, align 8
  %11 = getelementptr inbounds nuw %struct.ForEachState, ptr %6, i32 0, i32 1
  store i32 0, ptr %11, align 8
  %12 = getelementptr i8, ptr %6, i64 12
  call void @llvm.memset.p0.i64(ptr align 4 %12, i8 0, i64 4, i1 false)
  br label %13

13:                                               ; preds = %118, %2
  %14 = getelementptr inbounds nuw %struct.ForEachState, ptr %6, i32 0, i32 0
  %15 = load ptr, ptr %14, align 8
  %16 = icmp ne ptr %15, null
  br i1 %16, label %17, label %34

17:                                               ; preds = %13
  %18 = getelementptr inbounds nuw %struct.ForEachState, ptr %6, i32 0, i32 1
  %19 = load i32, ptr %18, align 8
  %20 = getelementptr inbounds nuw %struct.ForEachState, ptr %6, i32 0, i32 0
  %21 = load ptr, ptr %20, align 8
  %22 = getelementptr inbounds nuw %struct.List, ptr %21, i32 0, i32 1
  %23 = load i32, ptr %22, align 4
  %24 = icmp slt i32 %19, %23
  br i1 %24, label %25, label %34

25:                                               ; preds = %17
  %26 = getelementptr inbounds nuw %struct.ForEachState, ptr %6, i32 0, i32 0
  %27 = load ptr, ptr %26, align 8
  %28 = getelementptr inbounds nuw %struct.List, ptr %27, i32 0, i32 3
  %29 = load ptr, ptr %28, align 8
  %30 = getelementptr inbounds nuw %struct.ForEachState, ptr %6, i32 0, i32 1
  %31 = load i32, ptr %30, align 8
  %32 = sext i32 %31 to i64
  %33 = getelementptr inbounds %union.ListCell, ptr %29, i64 %32
  store ptr %33, ptr %5, align 8
  br label %35

34:                                               ; preds = %17, %13
  store ptr null, ptr %5, align 8
  br label %35

35:                                               ; preds = %34, %25
  %36 = phi i32 [ 1, %25 ], [ 0, %34 ]
  %37 = icmp ne i32 %36, 0
  br i1 %37, label %39, label %38

38:                                               ; preds = %35
  call void @llvm.lifetime.end.p0(i64 16, ptr %6) #7
  br label %122

39:                                               ; preds = %35
  call void @llvm.lifetime.start.p0(i64 8, ptr %7) #7
  %40 = load ptr, ptr %5, align 8
  %41 = load ptr, ptr %40, align 8
  store ptr %41, ptr %7, align 8
  %42 = load ptr, ptr %7, align 8
  %43 = getelementptr inbounds nuw %struct.OpFamilyMember, ptr %42, i32 0, i32 2
  %44 = load i32, ptr %43, align 4
  %45 = load ptr, ptr %4, align 8
  %46 = getelementptr inbounds nuw %struct.OpFamilyMember, ptr %45, i32 0, i32 2
  %47 = load i32, ptr %46, align 4
  %48 = icmp eq i32 %44, %47
  br i1 %48, label %49, label %117

49:                                               ; preds = %39
  %50 = load ptr, ptr %7, align 8
  %51 = getelementptr inbounds nuw %struct.OpFamilyMember, ptr %50, i32 0, i32 3
  %52 = load i32, ptr %51, align 4
  %53 = load ptr, ptr %4, align 8
  %54 = getelementptr inbounds nuw %struct.OpFamilyMember, ptr %53, i32 0, i32 3
  %55 = load i32, ptr %54, align 4
  %56 = icmp eq i32 %52, %55
  br i1 %56, label %57, label %117

57:                                               ; preds = %49
  %58 = load ptr, ptr %7, align 8
  %59 = getelementptr inbounds nuw %struct.OpFamilyMember, ptr %58, i32 0, i32 4
  %60 = load i32, ptr %59, align 4
  %61 = load ptr, ptr %4, align 8
  %62 = getelementptr inbounds nuw %struct.OpFamilyMember, ptr %61, i32 0, i32 4
  %63 = load i32, ptr %62, align 4
  %64 = icmp eq i32 %60, %63
  br i1 %64, label %65, label %117

65:                                               ; preds = %57
  %66 = load ptr, ptr %4, align 8
  %67 = getelementptr inbounds nuw %struct.OpFamilyMember, ptr %66, i32 0, i32 0
  %68 = load i8, ptr %67, align 4, !range !4, !noundef !5
  %69 = trunc i8 %68 to i1
  br i1 %69, label %70, label %93

70:                                               ; preds = %65
  br label %71

71:                                               ; preds = %70
  br i1 true, label %72, label %74

72:                                               ; preds = %71
  %73 = call zeroext i1 @errstart_cold(i32 noundef 21, ptr noundef null) #8
  br i1 %73, label %76, label %90

74:                                               ; preds = %71
  %75 = call zeroext i1 @errstart(i32 noundef 21, ptr noundef null)
  br i1 %75, label %76, label %90

76:                                               ; preds = %74, %72
  %77 = call i32 @errcode(i32 noundef 117833860)
  %78 = load ptr, ptr %4, align 8
  %79 = getelementptr inbounds nuw %struct.OpFamilyMember, ptr %78, i32 0, i32 2
  %80 = load i32, ptr %79, align 4
  %81 = load ptr, ptr %4, align 8
  %82 = getelementptr inbounds nuw %struct.OpFamilyMember, ptr %81, i32 0, i32 3
  %83 = load i32, ptr %82, align 4
  %84 = call ptr @format_type_be(i32 noundef %83)
  %85 = load ptr, ptr %4, align 8
  %86 = getelementptr inbounds nuw %struct.OpFamilyMember, ptr %85, i32 0, i32 4
  %87 = load i32, ptr %86, align 4
  %88 = call ptr @format_type_be(i32 noundef %87)
  %89 = call i32 (ptr, ...) @errmsg(ptr noundef @.str.48, i32 noundef %80, ptr noundef %84, ptr noundef %88)
  call void @errfinish(ptr noundef @.str.1, i32 noundef 1410, ptr noundef @__func__.addFamilyMember)
  br label %90

90:                                               ; preds = %76, %74, %72
  unreachable

91:                                               ; No predecessors!
  br label %92

92:                                               ; preds = %91
  br label %116

93:                                               ; preds = %65
  br label %94

94:                                               ; preds = %93
  br i1 true, label %95, label %97

95:                                               ; preds = %94
  %96 = call zeroext i1 @errstart_cold(i32 noundef 21, ptr noundef null) #8
  br i1 %96, label %99, label %113

97:                                               ; preds = %94
  %98 = call zeroext i1 @errstart(i32 noundef 21, ptr noundef null)
  br i1 %98, label %99, label %113

99:                                               ; preds = %97, %95
  %100 = call i32 @errcode(i32 noundef 117833860)
  %101 = load ptr, ptr %4, align 8
  %102 = getelementptr inbounds nuw %struct.OpFamilyMember, ptr %101, i32 0, i32 2
  %103 = load i32, ptr %102, align 4
  %104 = load ptr, ptr %4, align 8
  %105 = getelementptr inbounds nuw %struct.OpFamilyMember, ptr %104, i32 0, i32 3
  %106 = load i32, ptr %105, align 4
  %107 = call ptr @format_type_be(i32 noundef %106)
  %108 = load ptr, ptr %4, align 8
  %109 = getelementptr inbounds nuw %struct.OpFamilyMember, ptr %108, i32 0, i32 4
  %110 = load i32, ptr %109, align 4
  %111 = call ptr @format_type_be(i32 noundef %110)
  %112 = call i32 (ptr, ...) @errmsg(ptr noundef @.str.49, i32 noundef %103, ptr noundef %107, ptr noundef %111)
  call void @errfinish(ptr noundef @.str.1, i32 noundef 1417, ptr noundef @__func__.addFamilyMember)
  br label %113

113:                                              ; preds = %99, %97, %95
  unreachable

114:                                              ; No predecessors!
  br label %115

115:                                              ; preds = %114
  br label %116

116:                                              ; preds = %115, %92
  br label %117

117:                                              ; preds = %116, %57, %49, %39
  call void @llvm.lifetime.end.p0(i64 8, ptr %7) #7
  br label %118

118:                                              ; preds = %117
  %119 = getelementptr inbounds nuw %struct.ForEachState, ptr %6, i32 0, i32 1
  %120 = load i32, ptr %119, align 8
  %121 = add i32 %120, 1
  store i32 %121, ptr %119, align 8
  br label %13, !llvm.loop !11

122:                                              ; preds = %38
  %123 = load ptr, ptr %3, align 8
  %124 = load ptr, ptr %123, align 8
  %125 = load ptr, ptr %4, align 8
  %126 = call ptr @lappend(ptr noundef %124, ptr noundef %125)
  %127 = load ptr, ptr %3, align 8
  store ptr %126, ptr %127, align 8
  call void @llvm.lifetime.end.p0(i64 8, ptr %5) #7
  ret void
}