; Function Attrs: nounwind uwtable
define internal fastcc void @addFamilyMember(ptr noundef nonnull captures(none) %0, ptr noundef %1) unnamed_addr #0 {
  %3 = load ptr, ptr %0, align 8
  %.not = icmp eq ptr %3, null
  br i1 %.not, label %._crit_edge, label %.lr.ph

.lr.ph:                                           ; preds = %2
  %4 = getelementptr inbounds nuw i8, ptr %3, i64 4
  %5 = load i32, ptr %4, align 4
  %6 = getelementptr inbounds nuw i8, ptr %1, i64 12
  %7 = getelementptr inbounds nuw i8, ptr %1, i64 16
  %8 = icmp sgt i32 %5, 0
  br i1 %8, label %.lr.ph31, label %._crit_edge

.lr.ph31:                                         ; preds = %.lr.ph
  %9 = getelementptr inbounds nuw i8, ptr %1, i64 8
  %10 = getelementptr inbounds nuw i8, ptr %3, i64 16
  %11 = load ptr, ptr %10, align 8
  %12 = load i32, ptr %9, align 4
  %wide.trip.count = zext nneg i32 %5 to i64
  br label %14

._crit_edge:                                      ; preds = %43, %.lr.ph, %2
  %13 = tail call ptr @lappend(ptr noundef %3, ptr noundef %1) #6
  store ptr %13, ptr %0, align 8
  ret void

14:                                               ; preds = %.lr.ph31, %43
  %indvars.iv = phi i64 [ 0, %.lr.ph31 ], [ %indvars.iv.next, %43 ]
  %15 = getelementptr inbounds nuw %union.ListCell, ptr %11, i64 %indvars.iv
  %16 = load ptr, ptr %15, align 8
  %17 = getelementptr inbounds nuw i8, ptr %16, i64 8
  %18 = load i32, ptr %17, align 4
  %19 = icmp eq i32 %18, %12
  br i1 %19, label %20, label %43

20:                                               ; preds = %14
  %21 = getelementptr inbounds nuw i8, ptr %16, i64 12
  %22 = load i32, ptr %21, align 4
  %23 = load i32, ptr %6, align 4
  %24 = icmp eq i32 %22, %23
  br i1 %24, label %25, label %43

25:                                               ; preds = %20
  %26 = getelementptr inbounds nuw i8, ptr %16, i64 16
  %27 = load i32, ptr %26, align 4
  %28 = load i32, ptr %7, align 4
  %29 = icmp eq i32 %27, %28
  br i1 %29, label %.split, label %43

.split:                                           ; preds = %25
  %30 = load i8, ptr %1, align 4, !range !4, !noundef !5
  %31 = trunc nuw i8 %30 to i1
  %32 = tail call zeroext i1 @errstart_cold(i32 noundef 21, ptr noundef null) #7
  tail call void @llvm.assume(i1 %32)
  %33 = tail call i32 @errcode(i32 noundef 117833860) #6
  %34 = load i32, ptr %9, align 4
  %35 = load i32, ptr %6, align 4
  %36 = tail call ptr @format_type_be(i32 noundef %35) #6
  %37 = load i32, ptr %7, align 4
  %38 = tail call ptr @format_type_be(i32 noundef %37) #6
  br i1 %31, label %39, label %41

39:                                               ; preds = %.split
  %40 = tail call i32 (ptr, ...) @errmsg(ptr noundef nonnull @.str.48, i32 noundef %34, ptr noundef %36, ptr noundef %38) #6
  tail call void @errfinish(ptr noundef nonnull @.str.1, i32 noundef 1410, ptr noundef nonnull @__func__.addFamilyMember) #6
  unreachable

41:                                               ; preds = %.split
  %42 = tail call i32 (ptr, ...) @errmsg(ptr noundef nonnull @.str.49, i32 noundef %34, ptr noundef %36, ptr noundef %38) #6
  tail call void @errfinish(ptr noundef nonnull @.str.1, i32 noundef 1417, ptr noundef nonnull @__func__.addFamilyMember) #6
  unreachable

43:                                               ; preds = %25, %20, %14
  %indvars.iv.next = add nuw nsw i64 %indvars.iv, 1
  %exitcond.not = icmp eq i64 %indvars.iv.next, %wide.trip.count
  br i1 %exitcond.not, label %._crit_edge, label %14
}